{
   sendmsg uninit param suppress
   Memcheck:Param
   sendmsg(msg.msg_iov[0])
   obj:/lib/x86_64-linux-gnu/libpthread-2.19.so
   fun:_ZL15sendRecvVCommonibP7SgArrayPm
   fun:_ZL14sendRecvCommonibPvmPm
   fun:_ZL8sockSendiPvmPm
   fun:_Z17sockSendConvergediPvm
   fun:_ZN6MsgMgr7sendMsgEjP10MsgMessage12AckDirection
   fun:_ZN6MsgMgr5twoPcEP11TwoPcHandle9MsgTypeId15TwoPcHandleEnumP12MsgEphemeral16MsgSendRecvFlags12TwoPcCmdType17TwoPcNodePropertyj10TwoPcClass
   fun:_ZN6MsgMgr12twoPcBarrierE9MsgTypeId
   fun:_ZL19usrnodeRuntimeSetupPv
   fun:_ZN15ShimSchedulableIPv6StatusXadL_ZL19usrnodeRuntimeSetupS0_EEE3runEv
   fun:_ZN5Fiber3runEP11SchedObject
   fun:_ZN16FiberSchedThread4mainEv
}
{
   sendmsg uninit param suppress-2
   Memcheck:Param
   sendmsg(msg.msg_iov[0])
   obj:/lib/x86_64-linux-gnu/libpthread-2.19.so
   fun:_ZL15sendRecvVCommonibP7SgArrayPm
   fun:_Z9sockSendViP7SgArrayPm
   fun:_ZN6MsgMgr16sendOrRecvVectorEiP7SgArray12MsgDirection
   fun:_ZN6MsgMgr7sendMsgEjP10MsgMessage12AckDirection
   fun:_ZN6MsgMgr5twoPcEP11TwoPcHandle9MsgTypeId15TwoPcHandleEnumP12MsgEphemeral16MsgSendRecvFlags12TwoPcCmdType17TwoPcNodePropertyj10TwoPcClass
   fun:_ZN3Gvm9broadcastEP9GvmTargetjPvmP6Status
   fun:_ZN3Gvm6invokeEN9GvmTarget5IndexEjPvmP6Status
   fun:_ZN11AppGroupMgr20barrierWaitThisGroupEm
   fun:_ZN8AppGroup28localBarrierWaitFromInstanceEv
   fun:_ZN11AppInstance12onRequestMsgEPK15ProtoRequestMsgP16ProtoResponseMsg
   fun:_ZN6AppMgr12onRequestMsgEP15LocalConnectionPK15ProtoRequestMsgP16ProtoResponseMsg
}
{
   sendmsg uninit param suppress-3
   Memcheck:Param
   sendmsg(msg.msg_iov[1])
   obj:/lib/x86_64-linux-gnu/libpthread-2.19.so
   fun:_ZL15sendRecvVCommonibP7SgArrayPm
   fun:_Z9sockSendViP7SgArrayPm
   fun:_ZN6MsgMgr16sendOrRecvVectorEiP7SgArray12MsgDirection
   fun:_ZN6MsgMgr7sendMsgEjP10MsgMessage12AckDirection
   fun:_ZN6MsgMgr5twoPcEP11TwoPcHandle9MsgTypeId15TwoPcHandleEnumP12MsgEphemeral16MsgSendRecvFlags12TwoPcCmdType17TwoPcNodePropertyj10TwoPcClass
   fun:_ZN3Gvm9broadcastEP9GvmTargetjPvmP6Status
   fun:_ZN3Gvm6invokeEN9GvmTarget5IndexEjPvmP6Status
   fun:_ZN6DhtMgr12dhtAddViaGvmEPKcmdd8Ordering
   fun:_ZN6DhtMgr9dhtCreateEPKcdd8Orderingb
   fun:_ZN6DhtMgr20dhtCreateDefaultDhtsEv
   fun:_ZN6DhtMgr15dhtStateRestoreEv
}
{
   sendmsg uninit param suppress-4
   Memcheck:Param
   sendmsg(msg.msg_iov[0])
   obj:/lib/x86_64-linux-gnu/libpthread-2.19.so
   fun:_ZL15sendRecvVCommonibP7SgArrayPm
   fun:_Z9sockSendViP7SgArrayPm
   fun:_ZN6MsgMgr16sendOrRecvVectorEiP7SgArray12MsgDirection
   fun:_ZN6MsgMgr7sendMsgEjP10MsgMessage12AckDirection
   fun:_ZN6MsgMgr5twoPcEP11TwoPcHandle9MsgTypeId15TwoPcHandleEnumP12MsgEphemeral16MsgSendRecvFlags12TwoPcCmdType17TwoPcNodePropertyj10TwoPcClass
   fun:_ZN3Gvm9broadcastEP9GvmTargetjPvmP6Status
   fun:_ZN3Gvm6invokeEN9GvmTarget5IndexEjPvmP6Status
   fun:_ZN6DhtMgr12dhtAddViaGvmEPKcmdd8Ordering
   fun:_ZN6DhtMgr9dhtCreateEPKcdd8Orderingb
   fun:_ZN6DhtMgr20dhtCreateDefaultDhtsEv
   fun:_ZN6DhtMgr15dhtStateRestoreEv
}
{
   sendmsg uninit param suppress-5
   Memcheck:Param
   sendmsg(msg.msg_iov[1])
   obj:/lib/x86_64-linux-gnu/libpthread-2.19.so
   fun:_ZL15sendRecvVCommonibP7SgArrayPm
   fun:_Z9sockSendViP7SgArrayPm
   fun:_ZN6MsgMgr16sendOrRecvVectorEiP7SgArray12MsgDirection
   fun:_ZN6MsgMgr7sendMsgEjP10MsgMessage12AckDirection
   fun:_ZN6MsgMgr5twoPcEP11TwoPcHandle9MsgTypeId15TwoPcHandleEnumP12MsgEphemeral16MsgSendRecvFlags12TwoPcCmdType17TwoPcNodePropertyj10TwoPcClass
   fun:_ZN3Gvm9broadcastEP9GvmTargetjPvmP6Status
   fun:_ZN3Gvm6invokeEN9GvmTarget5IndexEjPvmP6Status
   fun:_ZN11AppGroupMgr20barrierWaitThisGroupEm
   fun:_ZN8AppGroup28localBarrierWaitFromInstanceEv
   fun:_ZN11AppInstance12onRequestMsgEPK15ProtoRequestMsgP16ProtoResponseMsg
   fun:_ZN6AppMgr12onRequestMsgEP15LocalConnectionPK15ProtoRequestMsgP16ProtoResponseMsg
}
{
   snappy suppress
   Memcheck:Value8
   fun:_ZN6snappy8internal16CompressFragmentEPKcmPcPti
   fun:_ZN6snappy8CompressEPNS_6SourceEPNS_4SinkE
   fun:_ZN6snappy11RawCompressEPKcmPcPm
   fun:_ZN8XcSnappy8compressEPvmS0_
   fun:_ZN16TransportPageMgr9serializeEP13TransportPage
   fun:_ZN19TransportPageHandle11enqueuePageEP13TransportPage
   fun:_ZN25OperatorsFilterAndMapWork8doneWorkEv
   fun:_ZN17OperatorsWorkBase3runEv
   fun:_ZN5Fiber3runEP11SchedObject
   fun:_ZN16FiberSchedThread4mainEv
   fun:_ZN5Fiber10entryPointEv
   fun:_ZN5Fiber17entryPointWrapperEv
}
{
   snappy suppress-2
   Memcheck:Cond
   fun:_ZN6snappy8internal16CompressFragmentEPKcmPcPti
   fun:_ZN6snappy8CompressEPNS_6SourceEPNS_4SinkE
   fun:_ZN6snappy11RawCompressEPKcmPcPm
   fun:_ZN8XcSnappy8compressEPvmS0_
   fun:_ZN16TransportPageMgr9serializeEP13TransportPage
   fun:_ZN19TransportPageHandle11enqueuePageEP13TransportPage
   fun:_ZN25OperatorsFilterAndMapWork8doneWorkEv
   fun:_ZN17OperatorsWorkBase3runEv
   fun:_ZN5Fiber3runEP11SchedObject
   fun:_ZN16FiberSchedThread4mainEv
   fun:_ZN5Fiber10entryPointEv
   fun:_ZN5Fiber17entryPointWrapperEv
}
{
   snappy suppress-3
   Memcheck:Value8
   fun:_ZN6snappy8internal16CompressFragmentEPKcmPcPti
   fun:_ZN6snappy8CompressEPNS_6SourceEPNS_4SinkE
   fun:_ZN6snappy11RawCompressEPKcmPcPm
   fun:_ZN8XcSnappy8compressEPvmS0_
   fun:_ZN16TransportPageMgr9serializeEP13TransportPage
   fun:_ZN19TransportPageHandle11enqueuePageEP13TransportPage
   fun:_ZN22OperatorsDemystifyRecv19demystifySourcePageEP13TransportPageP19TransportPageHandle
   fun:_ZN12DemystifyMgr23demystifySourcePageWorkEP12MsgEphemeralP13TransportPage
   fun:_ZN24StateDemystifySourcePage6doWorkEv
   fun:_ZN14SchedulableFsm3runEv
   fun:_ZN5Fiber3runEP11SchedObject
   fun:_ZN16FiberSchedThread4mainEv
}
{
   snappy suppress-4
   Memcheck:Cond
   fun:_ZN6snappy8internal16CompressFragmentEPKcmPcPti
   fun:_ZN6snappy8CompressEPNS_6SourceEPNS_4SinkE
   fun:_ZN6snappy11RawCompressEPKcmPcPm
   fun:_ZN8XcSnappy8compressEPvmS0_
   fun:_ZN16TransportPageMgr9serializeEP13TransportPage
   fun:_ZN19TransportPageHandle11enqueuePageEP13TransportPage
   fun:_ZN22OperatorsDemystifyRecv19demystifySourcePageEP13TransportPageP19TransportPageHandle
   fun:_ZN12DemystifyMgr23demystifySourcePageWorkEP12MsgEphemeralP13TransportPage
   fun:_ZN24StateDemystifySourcePage6doWorkEv
   fun:_ZN14SchedulableFsm3runEv
   fun:_ZN5Fiber3runEP11SchedObject
   fun:_ZN16FiberSchedThread4mainEv
}
{
   snappy suppress-5
   Memcheck:Cond
   fun:memcpy@@GLIBC_2.14
   fun:_ZN6snappy8internal16CompressFragmentEPKcmPcPti
   fun:_ZN6snappy8CompressEPNS_6SourceEPNS_4SinkE
   fun:_ZN6snappy11RawCompressEPKcmPcPm
   fun:_ZN8XcSnappy8compressEPvmS0_
   fun:_ZN16TransportPageMgr9serializeEP13TransportPage
   fun:_ZN19TransportPageHandle11enqueuePageEP13TransportPage
   fun:_ZN25OperatorsFilterAndMapWork8doneWorkEv
   fun:_ZN17OperatorsWorkBase3runEv
   fun:_ZN5Fiber3runEP11SchedObject
   fun:_ZN16FiberSchedThread4mainEv
   fun:_ZN5Fiber10entryPointEv
}
{
   snappy suppress-6
   Memcheck:Value8
   fun:memcpy@@GLIBC_2.14
   fun:_ZN6snappy8internal16CompressFragmentEPKcmPcPti
   fun:_ZN6snappy8CompressEPNS_6SourceEPNS_4SinkE
   fun:_ZN6snappy11RawCompressEPKcmPcPm
   fun:_ZN8XcSnappy8compressEPvmS0_
   fun:_ZN16TransportPageMgr9serializeEP13TransportPage
   fun:_ZN19TransportPageHandle11enqueuePageEP13TransportPage
   fun:_ZN25OperatorsFilterAndMapWork8doneWorkEv
   fun:_ZN17OperatorsWorkBase3runEv
   fun:_ZN5Fiber3runEP11SchedObject
   fun:_ZN16FiberSchedThread4mainEv
   fun:_ZN5Fiber10entryPointEv
}
{
   DurableDag suppress
   Memcheck:Cond
   fun:_ZNK6google8protobuf11UInt64Value8ByteSizeEv
   fun:_ZN6google8protobuf8internal14WireFormatLite20MessageSizeNoVirtualINS0_11UInt64ValueEEEiRKT_
   fun:_ZNK6xcalar8internal7durable3dag13SerializedHdr8ByteSizeEv
   fun:_ZN6google8protobuf8internal14WireFormatLite20MessageSizeNoVirtualIN6xcalar8internal7durable3dag13SerializedHdrEEEiRKT_
   fun:_ZNK6xcalar8internal7durable3dag27SerializedDagNodesContainer8ByteSizeEv
   fun:_ZN6google8protobuf8internal14WireFormatLite20MessageSizeNoVirtualIN6xcalar8internal7durable3dag27SerializedDagNodesContainerEEEiRKT_
   fun:_ZNK6xcalar8internal7durable3dag10DurableDag8ByteSizeEv
   fun:_ZN6google8protobuf8internal14WireFormatLite20MessageSizeNoVirtualIN6xcalar8internal7durable3dag10DurableDagEEEiRKT_
   fun:_ZNK6xcalar8internal7durable13DurableObject8ByteSizeEv
   fun:_ZN10LibDurable9serializeEPN6LogLib6HandleEPN6xcalar8internal7durable13DurableObjectEm
   fun:_ZN10LibDurable9serializeEPNS_6HandleE
   fun:_ZN10SessionMgr12writeSessionEP13XcalarSessionbb
}
{
   DurableDag suppress-2
   Memcheck:Cond
   fun:_ZNK6google8protobuf11UInt64Value39InternalSerializeWithCachedSizesToArrayEbPh
   fun:InternalWriteMessageNoVirtualToArray<google::protobuf::UInt64Value>
   fun:_ZNK6xcalar8internal7durable3dag13SerializedHdr39InternalSerializeWithCachedSizesToArrayEbPh
   fun:InternalWriteMessageNoVirtualToArray<xcalar::internal::durable::dag::SerializedHdr>
   fun:_ZNK6xcalar8internal7durable3dag27SerializedDagNodesContainer39InternalSerializeWithCachedSizesToArrayEbPh
   fun:InternalWriteMessageNoVirtualToArray<xcalar::internal::durable::dag::SerializedDagNodesContainer>
   fun:_ZNK6xcalar8internal7durable3dag10DurableDag39InternalSerializeWithCachedSizesToArrayEbPh
   fun:InternalWriteMessageNoVirtualToArray<xcalar::internal::durable::dag::DurableDag>
   fun:_ZNK6xcalar8internal7durable13DurableObject39InternalSerializeWithCachedSizesToArrayEbPh
   fun:_ZNK6xcalar8internal7durable13DurableObject31SerializeWithCachedSizesToArrayEPh
   fun:_ZNK6google8protobuf11MessageLite23SerializePartialToArrayEPvi
   fun:_ZN10LibDurable9serializeEPN6LogLib6HandleEPN6xcalar8internal7durable13DurableObjectEm
   fun:_ZN10LibDurable9serializeEPNS_6HandleE
   fun:_ZN10SessionMgr12writeSessionEP13XcalarSessionbb
   fun:_ZN10SessionMgr6createEP15XcalarApiUserIdP24XcalarApiSessionNewInputP25XcalarApiSessionNewOutput
   fun:_ZL13createSessionP15XcalarApiUserId
}
{
   AppLoader suppress
   Memcheck:Cond
   fun:vfprintf
   fun:__vsnprintf_chk
   fun:__snprintf_chk
   obj:/usr/lib/x86_64-linux-gnu/libjansson.so.4.5.0
   obj:/usr/lib/x86_64-linux-gnu/libjansson.so.4.5.0
   obj:/usr/lib/x86_64-linux-gnu/libjansson.so.4.5.0
   fun:json_dumps
   fun:_ZN9AppLoader16jsonifyLoadInputEPKcPK10DfLoadArgsS1_S1_12DfFormatTypePPc
   fun:_ZN9AppLoader11loadDatasetEPKcPK10DfLoadArgsP8OpStatusP23XcalarApiBulkLoadOutputPb
   fun:_ZN9Operators13createDatasetEP3DagP22XcalarApiBulkLoadInputPvP23XcalarApiBulkLoadOutputPP9DsDatasetPN11LibNsTypes8NsHandleEPm
   fun:_ZN23OperatorHandlerBulkLoad10runHandlerEPP15XcalarApiOutputPmPv
   fun:_ZN15OperatorHandler3runEPP15XcalarApiOutputPmPv
}
{
   AppLoader suppress-2
   Memcheck:Value8
   fun:_itoa_word
   fun:vfprintf
   fun:__vsnprintf_chk
   fun:__snprintf_chk
   obj:/usr/lib/x86_64-linux-gnu/libjansson.so.4.5.0
   obj:/usr/lib/x86_64-linux-gnu/libjansson.so.4.5.0
   obj:/usr/lib/x86_64-linux-gnu/libjansson.so.4.5.0
   fun:json_dumps
   fun:_ZN9AppLoader16jsonifyLoadInputEPKcPK10DfLoadArgsS1_S1_12DfFormatTypePPc
   fun:_ZN9AppLoader11loadDatasetEPKcPK10DfLoadArgsP8OpStatusP23XcalarApiBulkLoadOutputPb
   fun:_ZN9Operators13createDatasetEP3DagP22XcalarApiBulkLoadInputPvP23XcalarApiBulkLoadOutputPP9DsDatasetPN11LibNsTypes8NsHandleEPm
   fun:_ZN23OperatorHandlerBulkLoad10runHandlerEPP15XcalarApiOutputPmPv
}
{
   AppLoader suppress-3
   Memcheck:Cond
   fun:_itoa_word
   fun:vfprintf
   fun:__vsnprintf_chk
   fun:__snprintf_chk
   obj:/usr/lib/x86_64-linux-gnu/libjansson.so.4.5.0
   obj:/usr/lib/x86_64-linux-gnu/libjansson.so.4.5.0
   obj:/usr/lib/x86_64-linux-gnu/libjansson.so.4.5.0
   fun:json_dumps
   fun:_ZN9AppLoader16jsonifyLoadInputEPKcPK10DfLoadArgsS1_S1_12DfFormatTypePPc
   fun:_ZN9AppLoader11loadDatasetEPKcPK10DfLoadArgsP8OpStatusP23XcalarApiBulkLoadOutputPb
   fun:_ZN9Operators13createDatasetEP3DagP22XcalarApiBulkLoadInputPvP23XcalarApiBulkLoadOutputPP9DsDatasetPN11LibNsTypes8NsHandleEPm
   fun:_ZN23OperatorHandlerBulkLoad10runHandlerEPP15XcalarApiOutputPmPv
}
{
   AppLoader suppress-4
   Memcheck:Cond
   fun:vfprintf
   fun:__vsnprintf_chk
   fun:__snprintf_chk
   obj:/usr/lib/x86_64-linux-gnu/libjansson.so.4.5.0
   obj:/usr/lib/x86_64-linux-gnu/libjansson.so.4.5.0
   obj:/usr/lib/x86_64-linux-gnu/libjansson.so.4.5.0
   fun:json_dumps
   fun:_ZN9AppLoader16jsonifyLoadInputEPKcPK10DfLoadArgsS1_S1_12DfFormatTypePPc
   fun:_ZN9AppLoader11loadDatasetEPKcPK10DfLoadArgsP8OpStatusP23XcalarApiBulkLoadOutputPb
   fun:_ZN9Operators13createDatasetEP3DagP22XcalarApiBulkLoadInputPvP23XcalarApiBulkLoadOutputPP9DsDatasetPN11LibNsTypes8NsHandleEPm
   fun:_ZN23OperatorHandlerBulkLoad10runHandlerEPP15XcalarApiOutputPmPv
   fun:_ZN15OperatorHandler3runEPP15XcalarApiOutputPmPv
}
{
   doTwoPcWorkForMsg suppress
   Memcheck:Cond
   fun:_Z12_stompStatusP6MsgHdr
   fun:_ZN6MsgMgr17doTwoPcWorkForMsgEP10MsgMessage
   fun:_ZN18SchedMessageObject3runEv
   fun:_ZN5Fiber3runEP11SchedObject
   fun:_ZN16FiberSchedThread4mainEv
   fun:_ZN5Fiber10entryPointEv
   fun:_ZN5Fiber17entryPointWrapperEv
   obj:/lib/x86_64-linux-gnu/libc-2.19.so
}
{
   TP serialize suppress
   Memcheck:Cond
   fun:_ZN16TransportPageMgr9serializeEP13TransportPage
   fun:_ZN19TransportPageHandle11enqueuePageEP13TransportPage
   fun:_ZN25OperatorsFilterAndMapWork8doneWorkEv
   fun:_ZN17OperatorsWorkBase3runEv
   fun:_ZN5Fiber3runEP11SchedObject
   fun:_ZN16FiberSchedThread4mainEv
   fun:_ZN5Fiber10entryPointEv
   fun:_ZN5Fiber17entryPointWrapperEv
   obj:/lib/x86_64-linux-gnu/libc-2.19.so
}
{
   TP serialize suppress-2
   Memcheck:Cond
   fun:memcpy@@GLIBC_2.14
   fun:_ZN16TransportPageMgr9serializeEP13TransportPage
   fun:_ZN19TransportPageHandle11enqueuePageEP13TransportPage
   fun:_ZN25OperatorsFilterAndMapWork8doneWorkEv
   fun:_ZN17OperatorsWorkBase3runEv
   fun:_ZN5Fiber3runEP11SchedObject
   fun:_ZN16FiberSchedThread4mainEv
   fun:_ZN5Fiber10entryPointEv
   fun:_ZN5Fiber17entryPointWrapperEv
   obj:/lib/x86_64-linux-gnu/libc-2.19.so
}
{
   TP serialize suppress-3
   Memcheck:Cond
   fun:_ZN16TransportPageMgr9serializeEP13TransportPage
   fun:_ZN19TransportPageHandle11enqueuePageEP13TransportPage
   fun:_ZN20OperatorsGroupByWork8doneWorkEv
   fun:_ZN17OperatorsWorkBase3runEv
   fun:_ZN5Fiber3runEP11SchedObject
   fun:_ZN16FiberSchedThread4mainEv
   fun:_ZN5Fiber10entryPointEv
   fun:_ZN5Fiber17entryPointWrapperEv
   obj:/lib/x86_64-linux-gnu/libc-2.19.so
}
{
   TP serialize suppress-4
   Memcheck:Cond
   fun:memcpy@@GLIBC_2.14
   fun:_ZN16TransportPageMgr9serializeEP13TransportPage
   fun:_ZN19TransportPageHandle11enqueuePageEP13TransportPage
   fun:_ZN20OperatorsGroupByWork8doneWorkEv
   fun:_ZN17OperatorsWorkBase3runEv
   fun:_ZN5Fiber3runEP11SchedObject
   fun:_ZN16FiberSchedThread4mainEv
   fun:_ZN5Fiber10entryPointEv
   fun:_ZN5Fiber17entryPointWrapperEv
   obj:/lib/x86_64-linux-gnu/libc-2.19.so
}
{
   TP serialize suppress-5
   Memcheck:Cond
   fun:_ZN16TransportPageMgr9serializeEP13TransportPage
   fun:_ZN19TransportPageHandle11enqueuePageEP13TransportPage
   fun:_ZN22OperatorsDemystifyRecv19demystifySourcePageEP13TransportPageP19TransportPageHandle
   fun:_ZN12DemystifyMgr23demystifySourcePageWorkEP12MsgEphemeralP13TransportPage
   fun:_ZN24StateDemystifySourcePage6doWorkEv
   fun:_ZN14SchedulableFsm3runEv
   fun:_ZN5Fiber3runEP11SchedObject
   fun:_ZN16FiberSchedThread4mainEv
   fun:_ZN5Fiber10entryPointEv
   fun:_ZN5Fiber17entryPointWrapperEv
   obj:/lib/x86_64-linux-gnu/libc-2.19.so
}
{
   TP serialize suppress-6
   Memcheck:Cond
   fun:memcpy@@GLIBC_2.14
   fun:_ZN16TransportPageMgr9serializeEP13TransportPage
   fun:_ZN19TransportPageHandle11enqueuePageEP13TransportPage
   fun:_ZN22OperatorsDemystifyRecv19demystifySourcePageEP13TransportPageP19TransportPageHandle
   fun:_ZN12DemystifyMgr23demystifySourcePageWorkEP12MsgEphemeralP13TransportPage
   fun:_ZN24StateDemystifySourcePage6doWorkEv
   fun:_ZN14SchedulableFsm3runEv
   fun:_ZN5Fiber3runEP11SchedObject
   fun:_ZN16FiberSchedThread4mainEv
   fun:_ZN5Fiber10entryPointEv
   fun:_ZN5Fiber17entryPointWrapperEv
   obj:/lib/x86_64-linux-gnu/libc-2.19.so
}
{
   TP shipper suppress
   Memcheck:Cond
   fun:_ZN6MsgMgr8twoPcAltE9MsgTypeIdP12MsgEphemeral16MsgSendRecvFlags12TwoPcCmdType19PayloadBufCacheType17TwoPcNodePropertyj5TxnId
   fun:_ZN19TransportPageHandle8shipPageEP13TransportPage
   fun:_ZN16TransportPageMgr4shipEP13TransportPage
   fun:_ZN16TransportPageMgr22processPageForShippingEP13TransportPage
   fun:_ZN19TransportPageHandle11enqueuePageEP13TransportPage
   fun:_ZN25OperatorsFilterAndMapWork8doneWorkEv
   fun:_ZN17OperatorsWorkBase3runEv
   fun:_ZN5Fiber3runEP11SchedObject
   fun:_ZN16FiberSchedThread4mainEv
   fun:_ZN5Fiber10entryPointEv
   fun:_ZN5Fiber17entryPointWrapperEv
   obj:/lib/x86_64-linux-gnu/libc-2.19.so
}
{
   TP shipper suppress-2
   Memcheck:Cond
   fun:_ZN6MsgMgr7sendMsgEjP10MsgMessage12AckDirection
   fun:_ZN6MsgMgr8twoPcAltE9MsgTypeIdP12MsgEphemeral16MsgSendRecvFlags12TwoPcCmdType19PayloadBufCacheType17TwoPcNodePropertyj5TxnId
   fun:_ZN19TransportPageHandle8shipPageEP13TransportPage
   fun:_ZN16TransportPageMgr4shipEP13TransportPage
   fun:_ZN16TransportPageMgr22processPageForShippingEP13TransportPage
   fun:_ZN19TransportPageHandle11enqueuePageEP13TransportPage
   fun:_ZN25OperatorsFilterAndMapWork8doneWorkEv
   fun:_ZN17OperatorsWorkBase3runEv
   fun:_ZN5Fiber3runEP11SchedObject
   fun:_ZN16FiberSchedThread4mainEv
   fun:_ZN5Fiber10entryPointEv
   fun:_ZN5Fiber17entryPointWrapperEv
}
{
   TP shipper suppress-3
   Memcheck:Cond
   fun:_ZN6MsgMgr16sendOrRecvVectorEiP7SgArray12MsgDirection
   fun:_ZN6MsgMgr7sendMsgEjP10MsgMessage12AckDirection
   fun:_ZN6MsgMgr8twoPcAltE9MsgTypeIdP12MsgEphemeral16MsgSendRecvFlags12TwoPcCmdType19PayloadBufCacheType17TwoPcNodePropertyj5TxnId
   fun:_ZN19TransportPageHandle8shipPageEP13TransportPage
   fun:_ZN16TransportPageMgr4shipEP13TransportPage
   fun:_ZN16TransportPageMgr22processPageForShippingEP13TransportPage
   fun:_ZN19TransportPageHandle11enqueuePageEP13TransportPage
   fun:_ZN25OperatorsFilterAndMapWork8doneWorkEv
   fun:_ZN17OperatorsWorkBase3runEv
   fun:_ZN5Fiber3runEP11SchedObject
   fun:_ZN16FiberSchedThread4mainEv
   fun:_ZN5Fiber10entryPointEv
}
{
   TP shipper suppress-4
   Memcheck:Cond
   fun:_ZL15sendRecvVCommonibP7SgArrayPm
   fun:_Z9sockSendViP7SgArrayPm
   fun:_ZN6MsgMgr16sendOrRecvVectorEiP7SgArray12MsgDirection
   fun:_ZN6MsgMgr7sendMsgEjP10MsgMessage12AckDirection
   fun:_ZN6MsgMgr8twoPcAltE9MsgTypeIdP12MsgEphemeral16MsgSendRecvFlags12TwoPcCmdType19PayloadBufCacheType17TwoPcNodePropertyj5TxnId
   fun:_ZN19TransportPageHandle8shipPageEP13TransportPage
   fun:_ZN16TransportPageMgr4shipEP13TransportPage
   fun:_ZN16TransportPageMgr22processPageForShippingEP13TransportPage
   fun:_ZN19TransportPageHandle11enqueuePageEP13TransportPage
   fun:_ZN25OperatorsFilterAndMapWork8doneWorkEv
   fun:_ZN17OperatorsWorkBase3runEv
   fun:_ZN5Fiber3runEP11SchedObject
}
{
   TP shipper suppress-5
   Memcheck:Param
   sendmsg(msg.msg_iov)
   obj:/lib/x86_64-linux-gnu/libpthread-2.19.so
   fun:_ZL15sendRecvVCommonibP7SgArrayPm
   fun:_Z9sockSendViP7SgArrayPm
   fun:_ZN6MsgMgr16sendOrRecvVectorEiP7SgArray12MsgDirection
   fun:_ZN6MsgMgr7sendMsgEjP10MsgMessage12AckDirection
   fun:_ZN6MsgMgr8twoPcAltE9MsgTypeIdP12MsgEphemeral16MsgSendRecvFlags12TwoPcCmdType19PayloadBufCacheType17TwoPcNodePropertyj5TxnId
   fun:_ZN19TransportPageHandle8shipPageEP13TransportPage
   fun:_ZN16TransportPageMgr4shipEP13TransportPage
   fun:_ZN16TransportPageMgr22processPageForShippingEP13TransportPage
   fun:_ZN19TransportPageHandle11enqueuePageEP13TransportPage
   fun:_ZN25OperatorsFilterAndMapWork8doneWorkEv
   fun:_ZN17OperatorsWorkBase3runEv
}
